target datalayout = "e-m:e-p270:32:32-p271:32:32-p272:64:64-i64:64-i128:128-f80:128-n8:16:32:64-S128"
target triple = "x86_64-pc-linux-gnu"

%"class.std::basic_ostream" = type { ptr, %"class.std::basic_ios" }
%"class.std::basic_ios" = type { %"class.std::ios_base", ptr, i8, i8, ptr, ptr, ptr, ptr }
%"class.std::ios_base" = type { ptr, i64, i64, i32, i32, i32, ptr, %"struct.std::ios_base::_Words", [8 x %"struct.std::ios_base::_Words"], i32, ptr, %"class.std::locale" }
%"struct.std::ios_base::_Words" = type { ptr, i64 }
%"class.std::locale" = type { ptr }
%"class.nanogui::Screen" = type { %"class.nanogui::Widget.base", ptr, ptr, [6 x ptr], i32, %"class.std::vector", %"struct.nanogui::Array", float, i32, i32, %"struct.nanogui::Array", i8, ptr, double, i8, %"class.nanogui::Color", %"class.std::__cxx11::basic_string", i8, i8, i8, i8, i8, i8, %"class.std::function" }
%"class.nanogui::Widget.base" = type <{ %"class.nanogui::Object.base", [4 x i8], ptr, %"class.nanogui::ref", %"class.nanogui::ref.0", %"struct.nanogui::Array", %"struct.nanogui::Array", %"struct.nanogui::Array", %"class.std::vector", i8, i8, i8, i8, [4 x i8], %"class.std::__cxx11::basic_string", i32, float, i32 }>
%"class.nanogui::Object.base" = type <{ ptr, %"struct.std::atomic" }>
%"struct.std::atomic" = type { %"struct.std::__atomic_base" }
%"struct.std::__atomic_base" = type { i32 }
%"class.nanogui::ref" = type { ptr }
%"class.nanogui::ref.0" = type { ptr }
%"class.std::vector" = type { %"struct.std::_Vector_base" }
%"struct.std::_Vector_base" = type { %"struct.std::_Vector_base<nanogui::Widget *, std::allocator<nanogui::Widget *>>::_Vector_impl" }
%"struct.std::_Vector_base<nanogui::Widget *, std::allocator<nanogui::Widget *>>::_Vector_impl" = type { %"struct.std::_Vector_base<nanogui::Widget *, std::allocator<nanogui::Widget *>>::_Vector_impl_data" }
%"struct.std::_Vector_base<nanogui::Widget *, std::allocator<nanogui::Widget *>>::_Vector_impl_data" = type { ptr, ptr, ptr }
%"struct.nanogui::Array" = type { [2 x i32] }
%"class.nanogui::Color" = type { %"struct.nanogui::Array.7" }
%"struct.nanogui::Array.7" = type { [4 x float] }
%"class.std::__cxx11::basic_string" = type { %"struct.std::__cxx11::basic_string<char>::_Alloc_hider", i64, %union.anon }
%"struct.std::__cxx11::basic_string<char>::_Alloc_hider" = type { ptr }
%union.anon = type { i64, [8 x i8] }
%"class.std::function" = type { %"class.std::_Function_base", ptr }
%"class.std::_Function_base" = type { %"union.std::_Any_data", ptr }
%"union.std::_Any_data" = type { %"union.std::_Nocopy_types" }
%"union.std::_Nocopy_types" = type { { i64, i64 } }

@_ZTISt9exception = external constant ptr
@_ZSt4cerr = external global %"class.std::basic_ostream", align 8
@.str.9 = private unnamed_addr constant [36 x i8] c"Caught exception in event handler: \00", align 1

; Function Attrs: mustprogress uwtable
define hidden void @_ZN7nanogui6Screen18key_callback_eventEiiii(ptr noundef nonnull align 8 dereferenceable(384) %0, i32 noundef %1, i32 noundef %2, i32 noundef %3, i32 noundef %4) #4 align 2 personality ptr @__gxx_personality_v0 {
  %6 = alloca ptr, align 8
  %7 = alloca i32, align 4
  %8 = alloca i32, align 4
  %9 = alloca i32, align 4
  %10 = alloca i32, align 4
  %11 = alloca ptr, align 8
  %12 = alloca i32, align 4
  %13 = alloca ptr, align 8
  store ptr %0, ptr %6, align 8
  store i32 %1, ptr %7, align 4
  store i32 %2, ptr %8, align 4
  store i32 %3, ptr %9, align 4
  store i32 %4, ptr %10, align 4
  %14 = load ptr, ptr %6, align 8
  %15 = call double @glfwGetTime()
  %16 = getelementptr inbounds %"class.nanogui::Screen", ptr %14, i32 0, i32 13
  store double %15, ptr %16, align 8
  %17 = load i32, ptr %7, align 4
  %18 = load i32, ptr %8, align 4
  %19 = load i32, ptr %9, align 4
  %20 = load i32, ptr %10, align 4
  %21 = load ptr, ptr %14, align 8
  %22 = getelementptr inbounds ptr, ptr %21, i64 10
  %23 = load ptr, ptr %22, align 8
  %24 = invoke noundef zeroext i1 %23(ptr noundef nonnull align 8 dereferenceable(384) %14, i32 noundef %17, i32 noundef %18, i32 noundef %19, i32 noundef %20)
          to label %25 unwind label %34

25:                                               ; preds = %5
  %26 = zext i1 %24 to i32
  %27 = getelementptr inbounds %"class.nanogui::Screen", ptr %14, i32 0, i32 22
  %28 = load i8, ptr %27, align 1
  %29 = trunc i8 %28 to i1
  %30 = zext i1 %29 to i32
  %31 = or i32 %30, %26
  %32 = icmp ne i32 %31, 0
  %33 = zext i1 %32 to i8
  store i8 %33, ptr %27, align 1
  br label %56

34:                                               ; preds = %5
  %35 = landingpad { ptr, i32 }
          catch ptr @_ZTISt9exception
  %36 = extractvalue { ptr, i32 } %35, 0
  store ptr %36, ptr %11, align 8
  %37 = extractvalue { ptr, i32 } %35, 1
  store i32 %37, ptr %12, align 4
  br label %38

38:                                               ; preds = %34
  %39 = load i32, ptr %12, align 4
  %40 = call i32 @llvm.eh.typeid.for(ptr @_ZTISt9exception) #3
  %41 = icmp eq i32 %39, %40
  br i1 %41, label %42, label %62

42:                                               ; preds = %38
  %43 = load ptr, ptr %11, align 8
  %44 = call ptr @__cxa_begin_catch(ptr %43) #3
  store ptr %44, ptr %13, align 8
  %45 = invoke noundef nonnull align 8 dereferenceable(8) ptr @_ZStlsISt11char_traitsIcEERSt13basic_ostreamIcT_ES5_PKc(ptr noundef nonnull align 8 dereferenceable(8) @_ZSt4cerr, ptr noundef @.str.9)
          to label %46 unwind label %57

46:                                               ; preds = %42
  %47 = load ptr, ptr %13, align 8
  %48 = load ptr, ptr %47, align 8
  %49 = getelementptr inbounds ptr, ptr %48, i64 2
  %50 = load ptr, ptr %49, align 8
  %51 = call noundef ptr %50(ptr noundef nonnull align 8 dereferenceable(8) %47) #3
  %52 = invoke noundef nonnull align 8 dereferenceable(8) ptr @_ZStlsISt11char_traitsIcEERSt13basic_ostreamIcT_ES5_PKc(ptr noundef nonnull align 8 dereferenceable(8) %45, ptr noundef %51)
          to label %53 unwind label %57

53:                                               ; preds = %46
  %54 = invoke noundef nonnull align 8 dereferenceable(8) ptr @_ZNSolsEPFRSoS_E(ptr noundef nonnull align 8 dereferenceable(8) %52, ptr noundef @_ZSt4endlIcSt11char_traitsIcEERSt13basic_ostreamIT_T0_ES6_)
          to label %55 unwind label %57

55:                                               ; preds = %53
  call void @__cxa_end_catch()
  br label %56

56:                                               ; preds = %55, %25
  ret void

57:                                               ; preds = %53, %46, %42
  %58 = landingpad { ptr, i32 }
          cleanup
  %59 = extractvalue { ptr, i32 } %58, 0
  store ptr %59, ptr %11, align 8
  %60 = extractvalue { ptr, i32 } %58, 1
  store i32 %60, ptr %12, align 4
  invoke void @__cxa_end_catch()
          to label %61 unwind label %67

61:                                               ; preds = %57
  br label %62

62:                                               ; preds = %61, %38
  %63 = load ptr, ptr %11, align 8
  %64 = load i32, ptr %12, align 4
  %65 = insertvalue { ptr, i32 } poison, ptr %63, 0
  %66 = insertvalue { ptr, i32 } %65, i32 %64, 1
  resume { ptr, i32 } %66

67:                                               ; preds = %57
  %68 = landingpad { ptr, i32 }
          catch ptr null
  %69 = extractvalue { ptr, i32 } %68, 0
  call void @__clang_call_terminate(ptr %69) #23
  unreachable
}