; Function Attrs: mustprogress uwtable
define hidden void @_ZN7nanogui6Screen18key_callback_eventEiiii(ptr noundef nonnull align 8 dereferenceable(384) %0, i32 noundef %1, i32 noundef %2, i32 noundef %3, i32 noundef %4) local_unnamed_addr #3 align 2 personality ptr @__gxx_personality_v0 {
  %6 = tail call double @glfwGetTime()
  %7 = getelementptr inbounds i8, ptr %0, i64 280
  store double %6, ptr %7, align 8
  %8 = load ptr, ptr %0, align 8
  %9 = getelementptr inbounds i8, ptr %8, i64 80
  %10 = load ptr, ptr %9, align 8
  %11 = invoke noundef zeroext i1 %10(ptr noundef nonnull align 8 dereferenceable(384) %0, i32 noundef %1, i32 noundef %2, i32 noundef %3, i32 noundef %4)
          to label %12 unwind label %18

12:                                               ; preds = %5
  %13 = getelementptr inbounds i8, ptr %0, i64 349
  %14 = load i8, ptr %13, align 1
  %15 = and i8 %14, 1
  %16 = zext i1 %11 to i8
  %17 = or i8 %15, %16
  store i8 %17, ptr %13, align 1
  br label %36

18:                                               ; preds = %5
  %19 = landingpad { ptr, i32 }
          catch ptr @_ZTISt9exception
  %20 = extractvalue { ptr, i32 } %19, 1
  %21 = tail call i32 @llvm.eh.typeid.for(ptr nonnull @_ZTISt9exception) #30
  %22 = icmp eq i32 %20, %21
  br i1 %22, label %23, label %39

23:                                               ; preds = %18
  %24 = extractvalue { ptr, i32 } %19, 0
  %25 = tail call ptr @__cxa_begin_catch(ptr %24) #30
  %26 = invoke noundef nonnull align 8 dereferenceable(8) ptr @_ZStlsISt11char_traitsIcEERSt13basic_ostreamIcT_ES5_PKc(ptr noundef nonnull align 8 dereferenceable(8) @_ZSt4cerr, ptr noundef nonnull @.str.9)
          to label %27 unwind label %37

27:                                               ; preds = %23
  %28 = load ptr, ptr %25, align 8
  %29 = getelementptr inbounds i8, ptr %28, i64 16
  %30 = load ptr, ptr %29, align 8
  %31 = tail call noundef ptr %30(ptr noundef nonnull align 8 dereferenceable(8) %25) #30
  %32 = invoke noundef nonnull align 8 dereferenceable(8) ptr @_ZStlsISt11char_traitsIcEERSt13basic_ostreamIcT_ES5_PKc(ptr noundef nonnull align 8 dereferenceable(8) %26, ptr noundef %31)
          to label %33 unwind label %37

33:                                               ; preds = %27
  %34 = invoke noundef nonnull align 8 dereferenceable(8) ptr @_ZNSolsEPFRSoS_E(ptr noundef nonnull align 8 dereferenceable(8) %32, ptr noundef nonnull @_ZSt4endlIcSt11char_traitsIcEERSt13basic_ostreamIT_T0_ES6_)
          to label %35 unwind label %37

35:                                               ; preds = %33
  tail call void @__cxa_end_catch()
  br label %36

36:                                               ; preds = %35, %12
  ret void

37:                                               ; preds = %33, %27, %23
  %38 = landingpad { ptr, i32 }
          cleanup
  invoke void @__cxa_end_catch()
          to label %39 unwind label %40

39:                                               ; preds = %37, %18
  %.merged = phi { ptr, i32 } [ %38, %37 ], [ %19, %18 ]
  resume { ptr, i32 } %.merged

40:                                               ; preds = %37
  %41 = landingpad { ptr, i32 }
          catch ptr null
  %42 = extractvalue { ptr, i32 } %41, 0
  tail call void @__clang_call_terminate(ptr %42) #31
  unreachable
}